((dp1
S'queue'
p2
ccopy_reg
_reconstructor
p3
(csplunk.appserver.mrsparkle.lib.message
SessionQueue
p4
c__builtin__
object
p5
NtRp6
(dp7
S'queue'
p8
(lp9
sbsS'q_mgr'
p10
g3
(csplunk.appserver.mrsparkle.lib.msg_pool
MsgPoolMgr
p11
g5
NtRp12
sS'sessionKey'
p13
S'45f0ff7469a428528cba3d270eef376a'
p14
sS'csrf_form_key'
p15
S'13599296341737324456'
p16
sS'user'
p17
(dp18
S'fullName'
p19
S'Administrator'
p20
sS'name'
p21
Vadmin
p22
sS'id'
p23
I-1
ssI60
t.