((dp1
S'queue'
p2
ccopy_reg
_reconstructor
p3
(csplunk.appserver.mrsparkle.lib.message
SessionQueue
p4
c__builtin__
object
p5
NtRp6
(dp7
S'queue'
p8
(lp9
sbsS'sessionKey'
p10
S'363be79a28d89cae1d17f7cd9616964f'
p11
sS'user'
p12
(dp13
S'fullName'
p14
S'Administrator'
p15
sS'name'
p16
Vadmin
p17
sS'id'
p18
I-1
ssS'csrf_form_key'
p19
S'63332161844113123'
p20
sI60
t.