((dp1
S'queue'
p2
ccopy_reg
_reconstructor
p3
(csplunk.appserver.mrsparkle.lib.message
SessionQueue
p4
c__builtin__
object
p5
NtRp6
(dp7
S'queue'
p8
(lp9
sbsS'sessionKey'
p10
S'3804f5994184f129a4ed296597a4d83c'
p11
sS'user'
p12
(dp13
S'fullName'
p14
S'Administrator'
p15
sS'name'
p16
Vadmin
p17
sS'id'
p18
I-1
ssS'csrf_form_key'
p19
S'6753211271232184639'
p20
sI60
t.